target datalayout = "e-m:e-p270:32:32-p271:32:32-p272:64:64-i64:64-i128:128-f80:128-n8:16:32:64-S128"
target triple = "x86_64-pc-linux-gnu"

%struct.QMetaObject = type { %struct.anon }
%struct.anon = type { %"struct.QMetaObject::SuperData", ptr, ptr, ptr, ptr, ptr }
%"struct.QMetaObject::SuperData" = type { ptr }
%class.QString = type { ptr }
%"class.e57::Reader" = type { %"class.std::shared_ptr" }
%"class.std::shared_ptr" = type { %"class.std::__shared_ptr" }
%"class.std::__shared_ptr" = type { ptr, %"class.std::__shared_count" }
%"class.std::__shared_count" = type { ptr }
%"class.std::__cxx11::basic_string" = type { %"struct.std::__cxx11::basic_string<char>::_Alloc_hider", i64, %union.anon }
%"struct.std::__cxx11::basic_string<char>::_Alloc_hider" = type { ptr }
%union.anon = type { i64, [8 x i8] }

@.str.6 = private unnamed_addr constant [4 x i8] c"E57\00", align 1
@.str.7 = private unnamed_addr constant [30 x i8] c"Error while opening E57 file!\00", align 1
@_ZTI11MLException = linkonce_odr constant { ptr, ptr, ptr } { ptr getelementptr inbounds (ptr, ptr @_ZTVN10__cxxabiv120__si_class_type_infoE, i64 2), ptr @_ZTS11MLException, ptr @_ZTISt9exception }, comdat, align 8
@.str.8 = private unnamed_addr constant [34 x i8] c"Error while closing the E57 file!\00", align 1
@_ZN11E57IOPlugin16staticMetaObjectE = external global %struct.QMetaObject, align 8

; Function Attrs: mustprogress uwtable
define linkonce_odr void @_ZN7QStringC2EPKc(ptr noundef nonnull align 8 dereferenceable(8) %0, ptr noundef %1) unnamed_addr #5 comdat align 2 {
  %3 = alloca ptr, align 8
  %4 = alloca ptr, align 8
  store ptr %0, ptr %3, align 8
  store ptr %1, ptr %4, align 8
  %5 = load ptr, ptr %3, align 8
  %6 = getelementptr inbounds %class.QString, ptr %5, i32 0, i32 0
  %7 = load ptr, ptr %4, align 8
  %8 = load ptr, ptr %4, align 8
  %9 = icmp ne ptr %8, null
  br i1 %9, label %10, label %14

10:                                               ; preds = %2
  %11 = load ptr, ptr %4, align 8
  %12 = call i64 @strlen(ptr noundef %11) #24
  %13 = trunc i64 %12 to i32
  br label %15

14:                                               ; preds = %2
  br label %15

15:                                               ; preds = %14, %10
  %16 = phi i32 [ %13, %10 ], [ -1, %14 ]
  %17 = call noundef ptr @_ZN7QString16fromAscii_helperEPKci(ptr noundef %7, i32 noundef %16)
  store ptr %17, ptr %6, align 8
  ret void
}

; Function Attrs: mustprogress nounwind uwtable
define linkonce_odr noundef zeroext i1 @_ZneRK7QStringS1_(ptr noundef nonnull align 8 dereferenceable(8) %0, ptr noundef nonnull align 8 dereferenceable(8) %1) #4 comdat {
  %3 = alloca ptr, align 8
  %4 = alloca ptr, align 8
  store ptr %0, ptr %3, align 8
  store ptr %1, ptr %4, align 8
  %5 = load ptr, ptr %3, align 8
  %6 = load ptr, ptr %4, align 8
  %7 = call noundef zeroext i1 @_ZeqRK7QStringS1_(ptr noundef nonnull align 8 dereferenceable(8) %5, ptr noundef nonnull align 8 dereferenceable(8) %6) #3
  %8 = xor i1 %7, true
  ret i1 %8
}

; Function Attrs: mustprogress uwtable
define linkonce_odr void @_ZN11E57IOPlugin2trEPKcS1_i(ptr dead_on_unwind noalias writable sret(%class.QString) align 8 %0, ptr noundef %1, ptr noundef %2, i32 noundef %3) #5 comdat align 2 {
  %5 = alloca ptr, align 8
  %6 = alloca ptr, align 8
  %7 = alloca ptr, align 8
  %8 = alloca i32, align 4
  store ptr %0, ptr %5, align 8
  store ptr %1, ptr %6, align 8
  store ptr %2, ptr %7, align 8
  store i32 %3, ptr %8, align 4
  %9 = load ptr, ptr %6, align 8
  %10 = load ptr, ptr %7, align 8
  %11 = load i32, ptr %8, align 4
  call void @_ZNK11QMetaObject2trEPKcS1_i(ptr dead_on_unwind writable sret(%class.QString) align 8 %0, ptr noundef nonnull align 8 dereferenceable(48) @_ZN11E57IOPlugin16staticMetaObjectE, ptr noundef %9, ptr noundef %10, i32 noundef %11)
  ret void
}

; Function Attrs: mustprogress uwtable
define linkonce_odr void @_ZNKR7QString7toUpperEv(ptr dead_on_unwind noalias writable sret(%class.QString) align 8 %0, ptr noundef nonnull align 8 dereferenceable(8) %1) #5 comdat align 2 {
  %3 = alloca ptr, align 8
  %4 = alloca ptr, align 8
  store ptr %0, ptr %3, align 8
  store ptr %1, ptr %4, align 8
  %5 = load ptr, ptr %4, align 8
  call void @_ZN7QString14toUpper_helperERKS_(ptr dead_on_unwind writable sret(%class.QString) align 8 %0, ptr noundef nonnull align 8 dereferenceable(8) %5)
  ret void
}

; Function Attrs: mustprogress uwtable
define noundef i32 @_ZNK11E57IOPlugin27numberMeshesContainedInFileERK7QStringS2_RK17RichParameterList(ptr noundef nonnull align 8 dereferenceable(32) %0, ptr noundef nonnull align 8 dereferenceable(8) %1, ptr noundef nonnull align 8 dereferenceable(8) %2, ptr noundef nonnull align 8 dereferenceable(24) %3) unnamed_addr #5 align 2 personality ptr @__gxx_personality_v0 {
  %5 = alloca ptr, align 8
  %6 = alloca ptr, align 8
  %7 = alloca ptr, align 8
  %8 = alloca ptr, align 8
  %9 = alloca i32, align 4
  %10 = alloca %class.QString, align 8
  %11 = alloca %class.QString, align 8
  %12 = alloca ptr, align 8
  %13 = alloca i32, align 4
  %14 = alloca %"class.e57::Reader", align 8
  %15 = alloca %"class.std::__cxx11::basic_string", align 8
  %16 = alloca %class.QString, align 8
  %17 = alloca i1, align 1
  %18 = alloca %class.QString, align 8
  %19 = alloca i1, align 1
  store ptr %0, ptr %5, align 8
  store ptr %1, ptr %6, align 8
  store ptr %2, ptr %7, align 8
  store ptr %3, ptr %8, align 8
  %20 = load ptr, ptr %5, align 8
  %21 = load ptr, ptr %6, align 8
  call void @_ZNKR7QString7toUpperEv(ptr dead_on_unwind writable sret(%class.QString) align 8 %10, ptr noundef nonnull align 8 dereferenceable(8) %21)
  invoke void @_ZN11E57IOPlugin2trEPKcS1_i(ptr dead_on_unwind writable sret(%class.QString) align 8 %11, ptr noundef @.str.6, ptr noundef null, i32 noundef -1)
          to label %22 unwind label %27

22:                                               ; preds = %4
  %23 = call noundef zeroext i1 @_ZneRK7QStringS1_(ptr noundef nonnull align 8 dereferenceable(8) %10, ptr noundef nonnull align 8 dereferenceable(8) %11) #3
  call void @_ZN7QStringD2Ev(ptr noundef nonnull align 8 dereferenceable(8) %11) #3
  call void @_ZN7QStringD2Ev(ptr noundef nonnull align 8 dereferenceable(8) %10) #3
  br i1 %23, label %24, label %31

24:                                               ; preds = %22
  %25 = getelementptr inbounds i8, ptr %20, i64 16
  %26 = load ptr, ptr %6, align 8
  call void @_ZNK8IOPlugin15wrongOpenFormatERK7QString(ptr noundef nonnull align 8 dereferenceable(16) %25, ptr noundef nonnull align 8 dereferenceable(8) %26)
  br label %31

27:                                               ; preds = %4
  %28 = landingpad { ptr, i32 }
          cleanup
  %29 = extractvalue { ptr, i32 } %28, 0
  store ptr %29, ptr %12, align 8
  %30 = extractvalue { ptr, i32 } %28, 1
  store i32 %30, ptr %13, align 4
  call void @_ZN7QStringD2Ev(ptr noundef nonnull align 8 dereferenceable(8) %10) #3
  br label %85

31:                                               ; preds = %24, %22
  %32 = load ptr, ptr %7, align 8
  call void @_ZL16filenameToStringB5cxx11RK7QString(ptr dead_on_unwind writable sret(%"class.std::__cxx11::basic_string") align 8 %15, ptr noundef nonnull align 8 dereferenceable(8) %32) #3
  invoke void @_ZN3e576ReaderC1ERKNSt7__cxx1112basic_stringIcSt11char_traitsIcESaIcEEE(ptr noundef nonnull align 8 dereferenceable(16) %14, ptr noundef nonnull align 8 dereferenceable(32) %15)
          to label %33 unwind label %40

33:                                               ; preds = %31
  call void @_ZNSt7__cxx1112basic_stringIcSt11char_traitsIcESaIcEED1Ev(ptr noundef nonnull align 8 dereferenceable(32) %15) #3
  %34 = invoke noundef zeroext i1 @_ZNK3e576Reader6IsOpenEv(ptr noundef nonnull align 8 dereferenceable(16) %14)
          to label %35 unwind label %44

35:                                               ; preds = %33
  br i1 %34, label %60, label %36

36:                                               ; preds = %35
  store i1 true, ptr %17, align 1
  %37 = call ptr @__cxa_allocate_exception(i64 24) #3
  invoke void @_ZN7QStringC2EPKc(ptr noundef nonnull align 8 dereferenceable(8) %16, ptr noundef @.str.7)
          to label %38 unwind label %48

38:                                               ; preds = %36
  invoke void @_ZN11MLExceptionC2ERK7QString(ptr noundef nonnull align 8 dereferenceable(24) %37, ptr noundef nonnull align 8 dereferenceable(8) %16)
          to label %39 unwind label %52

39:                                               ; preds = %38
  store i1 false, ptr %17, align 1
  invoke void @__cxa_throw(ptr %37, ptr @_ZTI11MLException, ptr @_ZN11MLExceptionD2Ev) #21
          to label %90 unwind label %52

40:                                               ; preds = %31
  %41 = landingpad { ptr, i32 }
          cleanup
  %42 = extractvalue { ptr, i32 } %41, 0
  store ptr %42, ptr %12, align 8
  %43 = extractvalue { ptr, i32 } %41, 1
  store i32 %43, ptr %13, align 4
  call void @_ZNSt7__cxx1112basic_stringIcSt11char_traitsIcESaIcEED1Ev(ptr noundef nonnull align 8 dereferenceable(32) %15) #3
  br label %85

44:                                               ; preds = %62, %60, %33
  %45 = landingpad { ptr, i32 }
          cleanup
  %46 = extractvalue { ptr, i32 } %45, 0
  store ptr %46, ptr %12, align 8
  %47 = extractvalue { ptr, i32 } %45, 1
  store i32 %47, ptr %13, align 4
  br label %84

48:                                               ; preds = %36
  %49 = landingpad { ptr, i32 }
          cleanup
  %50 = extractvalue { ptr, i32 } %49, 0
  store ptr %50, ptr %12, align 8
  %51 = extractvalue { ptr, i32 } %49, 1
  store i32 %51, ptr %13, align 4
  br label %56

52:                                               ; preds = %39, %38
  %53 = landingpad { ptr, i32 }
          cleanup
  %54 = extractvalue { ptr, i32 } %53, 0
  store ptr %54, ptr %12, align 8
  %55 = extractvalue { ptr, i32 } %53, 1
  store i32 %55, ptr %13, align 4
  call void @_ZN7QStringD2Ev(ptr noundef nonnull align 8 dereferenceable(8) %16) #3
  br label %56

56:                                               ; preds = %52, %48
  %57 = load i1, ptr %17, align 1
  br i1 %57, label %58, label %59

58:                                               ; preds = %56
  call void @__cxa_free_exception(ptr %37) #3
  br label %59

59:                                               ; preds = %58, %56
  br label %84

60:                                               ; preds = %35
  %61 = invoke noundef i64 @_ZNK3e576Reader14GetData3DCountEv(ptr noundef nonnull align 8 dereferenceable(16) %14)
          to label %62 unwind label %44

62:                                               ; preds = %60
  %63 = trunc i64 %61 to i32
  store i32 %63, ptr %9, align 4
  %64 = invoke noundef zeroext i1 @_ZN3e576Reader5CloseEv(ptr noundef nonnull align 8 dereferenceable(16) %14)
          to label %65 unwind label %44

65:                                               ; preds = %62
  br i1 %64, label %82, label %66

66:                                               ; preds = %65
  store i1 true, ptr %19, align 1
  %67 = call ptr @__cxa_allocate_exception(i64 24) #3
  invoke void @_ZN7QStringC2EPKc(ptr noundef nonnull align 8 dereferenceable(8) %18, ptr noundef @.str.8)
          to label %68 unwind label %70

68:                                               ; preds = %66
  invoke void @_ZN11MLExceptionC2ERK7QString(ptr noundef nonnull align 8 dereferenceable(24) %67, ptr noundef nonnull align 8 dereferenceable(8) %18)
          to label %69 unwind label %74

69:                                               ; preds = %68
  store i1 false, ptr %19, align 1
  invoke void @__cxa_throw(ptr %67, ptr @_ZTI11MLException, ptr @_ZN11MLExceptionD2Ev) #21
          to label %90 unwind label %74

70:                                               ; preds = %66
  %71 = landingpad { ptr, i32 }
          cleanup
  %72 = extractvalue { ptr, i32 } %71, 0
  store ptr %72, ptr %12, align 8
  %73 = extractvalue { ptr, i32 } %71, 1
  store i32 %73, ptr %13, align 4
  br label %78

74:                                               ; preds = %69, %68
  %75 = landingpad { ptr, i32 }
          cleanup
  %76 = extractvalue { ptr, i32 } %75, 0
  store ptr %76, ptr %12, align 8
  %77 = extractvalue { ptr, i32 } %75, 1
  store i32 %77, ptr %13, align 4
  call void @_ZN7QStringD2Ev(ptr noundef nonnull align 8 dereferenceable(8) %18) #3
  br label %78

78:                                               ; preds = %74, %70
  %79 = load i1, ptr %19, align 1
  br i1 %79, label %80, label %81

80:                                               ; preds = %78
  call void @__cxa_free_exception(ptr %67) #3
  br label %81

81:                                               ; preds = %80, %78
  br label %84

82:                                               ; preds = %65
  %83 = load i32, ptr %9, align 4
  call void @_ZN3e576ReaderD2Ev(ptr noundef nonnull align 8 dereferenceable(16) %14) #3
  ret i32 %83

84:                                               ; preds = %81, %59, %44
  call void @_ZN3e576ReaderD2Ev(ptr noundef nonnull align 8 dereferenceable(16) %14) #3
  br label %85

85:                                               ; preds = %84, %40, %27
  %86 = load ptr, ptr %12, align 8
  %87 = load i32, ptr %13, align 4
  %88 = insertvalue { ptr, i32 } poison, ptr %86, 0
  %89 = insertvalue { ptr, i32 } %88, i32 %87, 1
  resume { ptr, i32 } %89

90:                                               ; preds = %69, %39
  unreachable
}