; Function Attrs: mustprogress uwtable
define noundef i32 @_ZNK11E57IOPlugin27numberMeshesContainedInFileERK7QStringS2_RK17RichParameterList(ptr noundef nonnull align 8 dereferenceable(32) %0, ptr noundef nonnull align 8 dereferenceable(8) %1, ptr nocapture noundef nonnull readonly align 8 dereferenceable(8) %2, ptr nocapture nonnull readnone align 8 %3) unnamed_addr #9 align 2 personality ptr @__gxx_personality_v0 {
  %5 = alloca %class.QString, align 8
  %6 = alloca %class.QString, align 8
  %7 = alloca %"class.e57::Reader", align 8
  %8 = alloca %"class.std::__cxx11::basic_string", align 8
  %9 = alloca %class.QString, align 8
  %10 = alloca %class.QString, align 8
  call void @_ZN7QString14toUpper_helperERKS_(ptr dead_on_unwind nonnull writable sret(%class.QString) align 8 %5, ptr noundef nonnull align 8 dereferenceable(8) %1)
  invoke void @_ZNK11QMetaObject2trEPKcS1_i(ptr dead_on_unwind nonnull writable sret(%class.QString) align 8 %6, ptr noundef nonnull align 8 dereferenceable(48) @_ZN11E57IOPlugin16staticMetaObjectE, ptr noundef nonnull @.str.6, ptr noundef null, i32 noundef -1)
          to label %_ZN11E57IOPlugin2trEPKcS1_i.exit unwind label %22

_ZN11E57IOPlugin2trEPKcS1_i.exit:                 ; preds = %4
  %11 = call noundef zeroext i1 @_ZeqRK7QStringS1_(ptr noundef nonnull align 8 dereferenceable(8) %5, ptr noundef nonnull align 8 dereferenceable(8) %6) #25
  %12 = load ptr, ptr %6, align 8
  %13 = load atomic i32, ptr %12 monotonic, align 4
  switch i32 %13, label %_ZN9QtPrivate8RefCount5derefEv.exit.i [
    i32 0, label %_ZN9QtPrivate8RefCount5derefEv.exit.thread2.i
    i32 -1, label %_ZN7QStringD2Ev.exit
  ]

_ZN9QtPrivate8RefCount5derefEv.exit.i:            ; preds = %_ZN11E57IOPlugin2trEPKcS1_i.exit
  %14 = atomicrmw sub ptr %12, i32 1 seq_cst, align 4
  %.not.i = icmp eq i32 %14, 1
  br i1 %.not.i, label %_ZN9QtPrivate8RefCount5derefEv.exit._ZN9QtPrivate8RefCount5derefEv.exit.thread2_crit_edge.i, label %_ZN7QStringD2Ev.exit

_ZN9QtPrivate8RefCount5derefEv.exit._ZN9QtPrivate8RefCount5derefEv.exit.thread2_crit_edge.i: ; preds = %_ZN9QtPrivate8RefCount5derefEv.exit.i
  %.pre.i = load ptr, ptr %6, align 8
  br label %_ZN9QtPrivate8RefCount5derefEv.exit.thread2.i

_ZN9QtPrivate8RefCount5derefEv.exit.thread2.i:    ; preds = %_ZN9QtPrivate8RefCount5derefEv.exit._ZN9QtPrivate8RefCount5derefEv.exit.thread2_crit_edge.i, %_ZN11E57IOPlugin2trEPKcS1_i.exit
  %15 = phi ptr [ %.pre.i, %_ZN9QtPrivate8RefCount5derefEv.exit._ZN9QtPrivate8RefCount5derefEv.exit.thread2_crit_edge.i ], [ %12, %_ZN11E57IOPlugin2trEPKcS1_i.exit ]
  call void @_ZN10QArrayData10deallocateEPS_mm(ptr noundef %15, i64 noundef 2, i64 noundef 8) #25
  br label %_ZN7QStringD2Ev.exit

_ZN7QStringD2Ev.exit:                             ; preds = %_ZN11E57IOPlugin2trEPKcS1_i.exit, %_ZN9QtPrivate8RefCount5derefEv.exit.i, %_ZN9QtPrivate8RefCount5derefEv.exit.thread2.i
  %16 = load ptr, ptr %5, align 8
  %17 = load atomic i32, ptr %16 monotonic, align 4
  switch i32 %17, label %_ZN9QtPrivate8RefCount5derefEv.exit.i22 [
    i32 0, label %_ZN9QtPrivate8RefCount5derefEv.exit.thread2.i21
    i32 -1, label %_ZN7QStringD2Ev.exit26
  ]

_ZN9QtPrivate8RefCount5derefEv.exit.i22:          ; preds = %_ZN7QStringD2Ev.exit
  %18 = atomicrmw sub ptr %16, i32 1 seq_cst, align 4
  %.not.i23 = icmp eq i32 %18, 1
  br i1 %.not.i23, label %_ZN9QtPrivate8RefCount5derefEv.exit._ZN9QtPrivate8RefCount5derefEv.exit.thread2_crit_edge.i24, label %_ZN7QStringD2Ev.exit26

_ZN9QtPrivate8RefCount5derefEv.exit._ZN9QtPrivate8RefCount5derefEv.exit.thread2_crit_edge.i24: ; preds = %_ZN9QtPrivate8RefCount5derefEv.exit.i22
  %.pre.i25 = load ptr, ptr %5, align 8
  br label %_ZN9QtPrivate8RefCount5derefEv.exit.thread2.i21

_ZN9QtPrivate8RefCount5derefEv.exit.thread2.i21:  ; preds = %_ZN9QtPrivate8RefCount5derefEv.exit._ZN9QtPrivate8RefCount5derefEv.exit.thread2_crit_edge.i24, %_ZN7QStringD2Ev.exit
  %19 = phi ptr [ %.pre.i25, %_ZN9QtPrivate8RefCount5derefEv.exit._ZN9QtPrivate8RefCount5derefEv.exit.thread2_crit_edge.i24 ], [ %16, %_ZN7QStringD2Ev.exit ]
  call void @_ZN10QArrayData10deallocateEPS_mm(ptr noundef %19, i64 noundef 2, i64 noundef 8) #25
  br label %_ZN7QStringD2Ev.exit26

_ZN7QStringD2Ev.exit26:                           ; preds = %_ZN7QStringD2Ev.exit, %_ZN9QtPrivate8RefCount5derefEv.exit.i22, %_ZN9QtPrivate8RefCount5derefEv.exit.thread2.i21
  br i1 %11, label %24, label %20

20:                                               ; preds = %_ZN7QStringD2Ev.exit26
  %21 = getelementptr inbounds i8, ptr %0, i64 16
  call void @_ZNK8IOPlugin15wrongOpenFormatERK7QString(ptr noundef nonnull align 8 dereferenceable(16) %21, ptr noundef nonnull align 8 dereferenceable(8) %1)
  br label %24

22:                                               ; preds = %4
  %23 = landingpad { ptr, i32 }
          cleanup
  call void @_ZN7QStringD2Ev(ptr noundef nonnull align 8 dereferenceable(8) %5) #25
  br label %96

24:                                               ; preds = %20, %_ZN7QStringD2Ev.exit26
  %.val = load ptr, ptr %2, align 8, !noalias !10
  call fastcc void @_ZL16filenameToStringB5cxx11RK7QString(ptr dead_on_unwind noalias nonnull writable align 8 %8, ptr %.val) #25
  invoke void @_ZN3e576ReaderC1ERKNSt7__cxx1112basic_stringIcSt11char_traitsIcESaIcEEE(ptr noundef nonnull align 8 dereferenceable(16) %7, ptr noundef nonnull align 8 dereferenceable(32) %8)
          to label %25 unwind label %34

25:                                               ; preds = %24
  call void @_ZNSt7__cxx1112basic_stringIcSt11char_traitsIcESaIcEED1Ev(ptr noundef nonnull align 8 dereferenceable(32) %8) #25
  %26 = invoke noundef zeroext i1 @_ZNK3e576Reader6IsOpenEv(ptr noundef nonnull align 8 dereferenceable(16) %7)
          to label %27 unwind label %36

27:                                               ; preds = %25
  br i1 %26, label %42, label %28

28:                                               ; preds = %27
  %29 = call ptr @__cxa_allocate_exception(i64 24) #25
  %30 = invoke noundef ptr @_ZN7QString16fromAscii_helperEPKci(ptr noundef nonnull @.str.7, i32 noundef 29)
          to label %31 unwind label %.thread

31:                                               ; preds = %28
  store ptr %30, ptr %9, align 8
  invoke void @_ZN11MLExceptionC2ERK7QString(ptr noundef nonnull align 8 dereferenceable(24) %29, ptr noundef nonnull align 8 dereferenceable(8) %9)
          to label %33 unwind label %.thread31

.thread31:                                        ; preds = %31
  %32 = landingpad { ptr, i32 }
          cleanup
  call void @_ZN7QStringD2Ev(ptr noundef nonnull align 8 dereferenceable(8) %9) #25
  br label %41

33:                                               ; preds = %31
  invoke void @__cxa_throw(ptr nonnull %29, ptr nonnull @_ZTI11MLException, ptr nonnull @_ZN11MLExceptionD2Ev) #29
          to label %97 unwind label %39

34:                                               ; preds = %24
  %35 = landingpad { ptr, i32 }
          cleanup
  call void @_ZNSt7__cxx1112basic_stringIcSt11char_traitsIcESaIcEED1Ev(ptr noundef nonnull align 8 dereferenceable(32) %8) #25
  br label %96

36:                                               ; preds = %44, %42, %25
  %37 = landingpad { ptr, i32 }
          cleanup
  br label %95

.thread:                                          ; preds = %28
  %38 = landingpad { ptr, i32 }
          cleanup
  br label %41

39:                                               ; preds = %33
  %40 = landingpad { ptr, i32 }
          cleanup
  call void @_ZN7QStringD2Ev(ptr noundef nonnull align 8 dereferenceable(8) %9) #25
  br label %95

41:                                               ; preds = %.thread31, %.thread
  %.pn30 = phi { ptr, i32 } [ %38, %.thread ], [ %32, %.thread31 ]
  call void @__cxa_free_exception(ptr %29) #25
  br label %95

42:                                               ; preds = %27
  %43 = invoke noundef i64 @_ZNK3e576Reader14GetData3DCountEv(ptr noundef nonnull align 8 dereferenceable(16) %7)
          to label %44 unwind label %36

44:                                               ; preds = %42
  %45 = invoke noundef zeroext i1 @_ZN3e576Reader5CloseEv(ptr noundef nonnull align 8 dereferenceable(16) %7)
          to label %46 unwind label %36

46:                                               ; preds = %44
  br i1 %45, label %57, label %47

47:                                               ; preds = %46
  %48 = call ptr @__cxa_allocate_exception(i64 24) #25
  %49 = invoke noundef ptr @_ZN7QString16fromAscii_helperEPKci(ptr noundef nonnull @.str.8, i32 noundef 33)
          to label %50 unwind label %.thread33

50:                                               ; preds = %47
  store ptr %49, ptr %10, align 8
  invoke void @_ZN11MLExceptionC2ERK7QString(ptr noundef nonnull align 8 dereferenceable(24) %48, ptr noundef nonnull align 8 dereferenceable(8) %10)
          to label %52 unwind label %.thread37

.thread37:                                        ; preds = %50
  %51 = landingpad { ptr, i32 }
          cleanup
  call void @_ZN7QStringD2Ev(ptr noundef nonnull align 8 dereferenceable(8) %10) #25
  br label %56

52:                                               ; preds = %50
  invoke void @__cxa_throw(ptr nonnull %48, ptr nonnull @_ZTI11MLException, ptr nonnull @_ZN11MLExceptionD2Ev) #29
          to label %97 unwind label %54

.thread33:                                        ; preds = %47
  %53 = landingpad { ptr, i32 }
          cleanup
  br label %56

54:                                               ; preds = %52
  %55 = landingpad { ptr, i32 }
          cleanup
  call void @_ZN7QStringD2Ev(ptr noundef nonnull align 8 dereferenceable(8) %10) #25
  br label %95

56:                                               ; preds = %.thread37, %.thread33
  %.pn1736 = phi { ptr, i32 } [ %53, %.thread33 ], [ %51, %.thread37 ]
  call void @__cxa_free_exception(ptr %48) #25
  br label %95

57:                                               ; preds = %46
  %58 = getelementptr inbounds i8, ptr %7, i64 8
  %59 = load ptr, ptr %58, align 8
  %.not.i.i.i.i = icmp eq ptr %59, null
  br i1 %.not.i.i.i.i, label %_ZN3e576ReaderD2Ev.exit, label %60

60:                                               ; preds = %57
  %61 = getelementptr inbounds i8, ptr %59, i64 8
  %62 = load atomic i64, ptr %61 acquire, align 8
  %63 = icmp eq i64 %62, 4294967297
  %64 = trunc i64 %62 to i32
  br i1 %63, label %65, label %70

65:                                               ; preds = %60
  store i32 0, ptr %61, align 8
  %66 = getelementptr inbounds i8, ptr %59, i64 12
  store i32 0, ptr %66, align 4
  %67 = load ptr, ptr %59, align 8
  %68 = getelementptr inbounds i8, ptr %67, i64 16
  %69 = load ptr, ptr %68, align 8
  call void %69(ptr noundef nonnull align 8 dereferenceable(16) %59) #25
  br label %_ZNSt16_Sp_counted_baseILN9__gnu_cxx12_Lock_policyE2EE24_M_release_last_use_coldEv.exit.sink.split.i.i.i.i.i

70:                                               ; preds = %60
  %71 = load i8, ptr @__libc_single_threaded, align 1
  %.not.i.i.i.i.i = icmp eq i8 %71, 0
  br i1 %.not.i.i.i.i.i, label %74, label %72

72:                                               ; preds = %70
  %73 = add nsw i32 %64, -1
  store i32 %73, ptr %61, align 4
  br label %76

74:                                               ; preds = %70
  %75 = atomicrmw volatile add ptr %61, i32 -1 acq_rel, align 4
  br label %76

76:                                               ; preds = %74, %72
  %.0.i.i.i.i.i = phi i32 [ %64, %72 ], [ %75, %74 ]
  %77 = icmp eq i32 %.0.i.i.i.i.i, 1
  br i1 %77, label %78, label %_ZN3e576ReaderD2Ev.exit

78:                                               ; preds = %76
  %79 = load ptr, ptr %59, align 8
  %80 = getelementptr inbounds i8, ptr %79, i64 16
  %81 = load ptr, ptr %80, align 8
  call void %81(ptr noundef nonnull align 8 dereferenceable(16) %59) #25
  %82 = getelementptr inbounds i8, ptr %59, i64 12
  %83 = load i8, ptr @__libc_single_threaded, align 1
  %.not.i.i.i.i.i.i.i = icmp eq i8 %83, 0
  br i1 %.not.i.i.i.i.i.i.i, label %87, label %84

84:                                               ; preds = %78
  %85 = load i32, ptr %82, align 4
  %86 = add nsw i32 %85, -1
  store i32 %86, ptr %82, align 4
  br label %89

87:                                               ; preds = %78
  %88 = atomicrmw volatile add ptr %82, i32 -1 acq_rel, align 4
  br label %89

89:                                               ; preds = %87, %84
  %.0.i.i.i.i.i.i.i = phi i32 [ %85, %84 ], [ %88, %87 ]
  %90 = icmp eq i32 %.0.i.i.i.i.i.i.i, 1
  br i1 %90, label %_ZNSt16_Sp_counted_baseILN9__gnu_cxx12_Lock_policyE2EE24_M_release_last_use_coldEv.exit.sink.split.i.i.i.i.i, label %_ZN3e576ReaderD2Ev.exit

_ZNSt16_Sp_counted_baseILN9__gnu_cxx12_Lock_policyE2EE24_M_release_last_use_coldEv.exit.sink.split.i.i.i.i.i: ; preds = %89, %65
  %91 = load ptr, ptr %59, align 8
  %92 = getelementptr inbounds i8, ptr %91, i64 24
  %93 = load ptr, ptr %92, align 8
  call void %93(ptr noundef nonnull align 8 dereferenceable(16) %59) #25
  br label %_ZN3e576ReaderD2Ev.exit

_ZN3e576ReaderD2Ev.exit:                          ; preds = %57, %76, %89, %_ZNSt16_Sp_counted_baseILN9__gnu_cxx12_Lock_policyE2EE24_M_release_last_use_coldEv.exit.sink.split.i.i.i.i.i
  %94 = trunc i64 %43 to i32
  ret i32 %94

95:                                               ; preds = %54, %39, %56, %41, %36
  %.pn17.pn = phi { ptr, i32 } [ %.pn1736, %56 ], [ %55, %54 ], [ %37, %36 ], [ %.pn30, %41 ], [ %40, %39 ]
  call void @_ZN3e576ReaderD2Ev(ptr noundef nonnull align 8 dereferenceable(16) %7) #25
  br label %96

96:                                               ; preds = %95, %34, %22
  %.pn17.pn.pn = phi { ptr, i32 } [ %.pn17.pn, %95 ], [ %35, %34 ], [ %23, %22 ]
  resume { ptr, i32 } %.pn17.pn.pn

97:                                               ; preds = %52, %33
  unreachable
}